; Function Attrs: mustprogress nounwind uwtable
define hidden noundef ptr @_ZNK19Bytecode_member_ref5klassEv(ptr nocapture noundef nonnull readonly align 8 dereferenceable(24) %0) local_unnamed_addr #2 align 2 {
  %2 = getelementptr inbounds i8, ptr %0, i64 16
  %3 = load ptr, ptr %2, align 8
  %4 = getelementptr inbounds i8, ptr %3, i64 8
  %5 = load ptr, ptr %4, align 8
  %6 = getelementptr inbounds i8, ptr %5, i64 8
  %7 = load ptr, ptr %6, align 8
  %8 = getelementptr inbounds i8, ptr %0, i64 8
  %9 = load i32, ptr %8, align 8
  %10 = icmp eq i32 %9, 186
  %11 = load ptr, ptr %0, align 8
  %12 = getelementptr inbounds i8, ptr %11, i64 1
  br i1 %10, label %13, label %14

13:                                               ; preds = %1
  %.0.i.i.i.i = load i32, ptr %12, align 1
  br label %_ZNK19Bytecode_member_ref5indexEv.exit

14:                                               ; preds = %1
  %15 = sext i32 %9 to i64
  %16 = getelementptr inbounds [512 x i16], ptr @_ZN9Bytecodes6_flagsE, i64 0, i64 %15
  %17 = load i16, ptr %16, align 2
  %18 = and i16 %17, 128
  %.not.i.i = icmp eq i16 %18, 0
  %.0.i.i.i.i.i = load i16, ptr %12, align 1
  %19 = tail call i16 @llvm.bswap.i16(i16 %.0.i.i.i.i.i)
  %.0.i.i = select i1 %.not.i.i, i16 %19, i16 %.0.i.i.i.i.i
  %20 = zext i16 %.0.i.i to i32
  br label %_ZNK19Bytecode_member_ref5indexEv.exit

_ZNK19Bytecode_member_ref5indexEv.exit:           ; preds = %13, %14
  %.0.i = phi i32 [ %.0.i.i.i.i, %13 ], [ %20, %14 ]
  %21 = tail call noundef ptr @_ZN12ConstantPool22klass_ref_at_noresolveEiN9Bytecodes4CodeE(ptr noundef nonnull align 8 dereferenceable(68) %7, i32 noundef %.0.i, i32 noundef %9) #8
  ret ptr %21
}